; Function Attrs: mustprogress uwtable
define void @_ZN6LibRaw15Nikon_NRW_WBtagEii(ptr noundef nonnull align 8 dereferenceable(767680) %0, i32 noundef %1, i32 noundef %2) local_unnamed_addr #0 align 2 {
  %.not = icmp eq i32 %2, 0
  br i1 %.not, label %6, label %4

4:                                                ; preds = %3
  %5 = tail call noundef i32 @_ZN6LibRaw4get4Ev(ptr noundef nonnull align 8 dereferenceable(767680) %0)
  br label %6

6:                                                ; preds = %4, %3
  %7 = tail call noundef i32 @_ZN6LibRaw4get4Ev(ptr noundef nonnull align 8 dereferenceable(767680) %0)
  %8 = tail call noundef i32 @_ZN6LibRaw4get4Ev(ptr noundef nonnull align 8 dereferenceable(767680) %0)
  %9 = tail call noundef i32 @_ZN6LibRaw4get4Ev(ptr noundef nonnull align 8 dereferenceable(767680) %0)
  %10 = tail call noundef i32 @_ZN6LibRaw4get4Ev(ptr noundef nonnull align 8 dereferenceable(767680) %0)
  %11 = icmp ne i32 %7, 0
  %12 = icmp ne i32 %8, 0
  %or.cond = and i1 %11, %12
  %13 = icmp ne i32 %9, 0
  %or.cond3 = and i1 %or.cond, %13
  %14 = icmp ne i32 %10, 0
  %or.cond5 = and i1 %or.cond3, %14
  br i1 %or.cond5, label %15, label %24

15:                                               ; preds = %6
  %16 = shl i32 %7, 1
  %17 = getelementptr inbounds nuw i8, ptr %0, i64 187092
  %18 = sext i32 %1 to i64
  %19 = getelementptr inbounds [256 x [4 x i32]], ptr %17, i64 0, i64 %18
  store i32 %16, ptr %19, align 4, !tbaa !92
  %20 = getelementptr inbounds nuw i8, ptr %19, i64 4
  store i32 %8, ptr %20, align 8, !tbaa !92
  %21 = shl i32 %10, 1
  %22 = getelementptr inbounds nuw i8, ptr %19, i64 8
  store i32 %21, ptr %22, align 4, !tbaa !92
  %23 = getelementptr inbounds nuw i8, ptr %19, i64 12
  store i32 %9, ptr %23, align 8, !tbaa !92
  br label %24

24:                                               ; preds = %15, %6
  ret void
}